target datalayout = "e-m:e-p270:32:32-p271:32:32-p272:64:64-i64:64-i128:128-f80:128-n8:16:32:64-S128"
target triple = "x86_64-pc-linux-gnu"

%class.OopIterateClosure = type { %class.OopClosure, ptr }
%class.OopClosure = type { ptr }
%class.G1CMIsAliveClosure = type { %class.BoolObjectClosure, ptr }
%class.BoolObjectClosure = type { ptr }
%class.BitMap = type { ptr, i64 }
%class.G1MappingChangedListener = type { ptr }
%class.MemRegion = type { ptr, i64 }
%class.G1CMSubjectToDiscoveryClosure = type { %class.BoolObjectClosure, ptr }
%class.G1STWIsAliveClosure = type { %class.BoolObjectClosure, ptr }
%class.G1RootProcessor = type { ptr, %class.SubTasksDone, %class.StrongRootsScope, %class.OopStorageSetStrongParState }
%class.SubTasksDone = type <{ ptr, i32, [4 x i8] }>
%class.StrongRootsScope = type { i32 }
%class.OopStorageSetStrongParState = type { %class.OopStorageSetParState }
%class.OopStorageSetParState = type { %struct.ValueObjArray }
%struct.ValueObjArray = type { [5 x ptr], %class.ValueObjBlock }
%class.ValueObjBlock = type { %"class.OopStorage::ParState", %class.ValueObjBlock.7 }
%"class.OopStorage::ParState" = type { %"class.OopStorage::BasicParState" }
%"class.OopStorage::BasicParState" = type { ptr, ptr, i64, i64, i32, i8, i64 }
%class.ValueObjBlock.7 = type { %"class.OopStorage::ParState", %class.ValueObjBlock.8 }
%class.ValueObjBlock.8 = type { %"class.OopStorage::ParState", %class.ValueObjBlock.9 }
%class.ValueObjBlock.9 = type { %"class.OopStorage::ParState", %class.ValueObjBlock.10 }
%class.ValueObjBlock.10 = type <{ %"class.OopStorage::ParState", %class.ValueObjBlock.11, [7 x i8] }>
%class.ValueObjBlock.11 = type { i8 }
%class.G1EvacPhaseTimesTracker = type { %class.G1GCParPhaseTimesTracker.base, %class.TimeInterval, %class.TimeInterval, %class.G1EvacPhaseWithTrimTimeTracker }
%class.G1GCParPhaseTimesTracker.base = type <{ ptr, %class.TimeInstant, i32, [4 x i8], ptr, i32, [4 x i8], %class.EventGCPhaseParallel, i8 }>
%class.TimeInstant = type { %class.CompositeCounterRepresentation }
%class.CompositeCounterRepresentation = type { %class.Representation }
%class.Representation = type { %class.PairRep }
%class.PairRep = type { i64, i64 }
%class.EventGCPhaseParallel = type { %class.JfrEvent.base, i32, i32, ptr }
%class.JfrEvent.base = type <{ i64, i64, i8, i8, i8 }>
%class.TimeInterval = type { %class.CompositeCounterRepresentation }
%class.G1EvacPhaseWithTrimTimeTracker = type <{ ptr, %class.TimeInstant, ptr, ptr, i8, [7 x i8] }>
%class.G1GCParPhaseTimesTracker = type <{ ptr, %class.TimeInstant, i32, [4 x i8], ptr, i32, [4 x i8], %class.EventGCPhaseParallel, i8, [7 x i8] }>
%class.G1CollectedHeap = type { %class.CollectedHeap, ptr, ptr, ptr, ptr, ptr, %class.TimeInstant, %class.G1HeapRegionSet, %class.G1HeapRegionSet, %class.G1MonotonicArenaMemoryStats, %class.G1MonotonicArenaMemoryStats, ptr, %class.G1RegionMappingChangedListener, ptr, %class.G1HeapRegionManager, ptr, %class.G1YoungGCAllocationFailureInjector, ptr, i64, i64, %class.G1EvacStats, %class.G1EvacStats, ptr, i32, i32, %class.G1CollectorState, i32, i32, %class.G1EdenRegions, %class.G1SurvivorRegions, ptr, ptr, ptr, ptr, %class.G1CollectionSet, ptr, %class.G1CardSetConfiguration, %class.G1MonotonicArenaFreePool, ptr, ptr, ptr, ptr, ptr, %class.G1STWIsAliveClosure, %class.G1STWSubjectToDiscoveryClosure, ptr, %class.G1CMIsAliveClosure, %class.G1CMSubjectToDiscoveryClosure, %class.G1HeapRegionAttrBiasedMappedArray }
%class.CollectedHeap = type { ptr, ptr, i64, i64, %class.SoftRefPolicy, %class.MemRegion, i8, i64, i32, i32, i32, i32, ptr, ptr }
%class.SoftRefPolicy = type { i8, i8 }
%class.G1HeapRegionSet = type { %class.G1HeapRegionSetBase.base, [7 x i8] }
%class.G1HeapRegionSetBase.base = type <{ ptr, ptr, i32, [4 x i8], ptr, i8 }>
%class.G1MonotonicArenaMemoryStats = type { [4 x i64], [4 x i64] }
%class.G1RegionMappingChangedListener = type { %class.G1MappingChangedListener }
%class.G1HeapRegionManager = type { ptr, ptr, %class.G1CommittedRegionMap, i32, [4 x i8], %class.G1HeapRegionTable, ptr, ptr, %class.G1FreeRegionList }
%class.G1CommittedRegionMap = type { ptr, %class.CHeapBitMap, %class.CHeapBitMap, i32, i32 }
%class.CHeapBitMap = type <{ %class.GrowableBitMap, i8, [7 x i8] }>
%class.GrowableBitMap = type { %class.BitMap }
%class.G1HeapRegionTable = type { %class.G1BiasedMappedArray.base, [4 x i8] }
%class.G1BiasedMappedArray.base = type { %class.G1BiasedMappedArrayBase.base }
%class.G1BiasedMappedArrayBase.base = type <{ ptr, ptr, ptr, i64, ptr, i64, i32 }>
%class.G1FreeRegionList = type { %class.G1HeapRegionSetBase.base, ptr, ptr, ptr, ptr }
%class.G1YoungGCAllocationFailureInjector = type { i8 }
%class.G1EvacStats = type { %class.PLABStats, i64, i64, %class.AdaptiveWeightedAverage, i64, i32, i64, i64, i64, i64, i64 }
%class.PLABStats = type { ptr, ptr, i64, i64, i64, i64 }
%class.AdaptiveWeightedAverage = type { float, i32, i32, i8, float }
%class.G1CollectorState = type { i8, i8, i8, i8, i8, i8, i8 }
%class.G1EdenRegions = type { i32, i64, %class.G1RegionsOnNodes }
%class.G1RegionsOnNodes = type { ptr, ptr }
%class.G1SurvivorRegions = type { ptr, i64, %class.G1RegionsOnNodes }
%class.G1CollectionSet = type { ptr, ptr, %class.G1CollectionSetCandidates, ptr, i32, i32, i32, i32, i32, %class.G1CollectionCandidateRegionList, i32, i64 }
%class.G1CollectionSetCandidates = type { [8 x i8], %class.G1CollectionCandidateList, %class.G1CollectionCandidateList, ptr, i32, i32 }
%class.G1CollectionCandidateList = type { %class.GrowableArray }
%class.GrowableArray = type { %class.GrowableArrayWithAllocator, %class.GrowableArrayMetadata }
%class.GrowableArrayWithAllocator = type { %class.GrowableArrayView }
%class.GrowableArrayView = type { %class.GrowableArrayBase, ptr }
%class.GrowableArrayBase = type { i32, i32 }
%class.GrowableArrayMetadata = type { i64 }
%class.G1CollectionCandidateRegionList = type { %class.GrowableArray.2 }
%class.GrowableArray.2 = type { %class.GrowableArrayWithAllocator.3, %class.GrowableArrayMetadata }
%class.GrowableArrayWithAllocator.3 = type { %class.GrowableArrayView.4 }
%class.GrowableArrayView.4 = type { %class.GrowableArrayBase, ptr }
%class.G1CardSetConfiguration = type { i32, i32, i32, i32, i32, i32, i32, i32, i32, i32, i32, ptr }
%class.G1MonotonicArenaFreePool = type { i32, ptr }
%class.G1STWSubjectToDiscoveryClosure = type { %class.BoolObjectClosure, ptr }
%class.G1HeapRegionAttrBiasedMappedArray = type { %class.G1BiasedMappedArray.base.6, [4 x i8] }
%class.G1BiasedMappedArray.base.6 = type { %class.G1BiasedMappedArrayBase.base }
%class.G1ParScanThreadState = type { ptr, ptr, ptr, %class.G1RedirtyCardsLocalQueueSet, ptr, ptr, ptr, %class.AgeTable, i32, [4 x i8], %class.G1ScanEvacuatedObjClosure, i32, i64, i32, i32, %class.TimeInterval, ptr, ptr, i64, i8, i32, %class.PartialArrayTaskStepper, %"class.StringDedup::Requests", i64, ptr, ptr, ptr, ptr, %class.EvacuationFailedInfo, ptr, i64 }
%class.G1RedirtyCardsLocalQueueSet = type { %class.PtrQueueSet, ptr, %struct.BufferNodeList, %"class.G1RedirtyCardsLocalQueueSet::Queue" }
%class.PtrQueueSet = type { ptr, ptr }
%struct.BufferNodeList = type { ptr, ptr, i64 }
%"class.G1RedirtyCardsLocalQueueSet::Queue" = type { %class.PtrQueue }
%class.PtrQueue = type { i64, ptr }
%class.AgeTable = type { [16 x i64], i8, [16 x ptr] }
%class.G1ScanEvacuatedObjClosure = type <{ %class.G1ScanClosureBase, i32, [4 x i8] }>
%class.G1ScanClosureBase = type { %class.BasicOopIterateClosure, ptr, ptr }
%class.BasicOopIterateClosure = type { %class.OopIterateClosure }
%class.PartialArrayTaskStepper = type { i32, i32 }
%"class.StringDedup::Requests" = type <{ ptr, ptr, i64, i8, [7 x i8] }>
%class.EvacuationFailedInfo = type { %class.CopyFailedInfo.base, [4 x i8] }
%class.CopyFailedInfo.base = type <{ ptr, i64, i64, i64, i32 }>

; Function Attrs: mustprogress nounwind uwtable
define linkonce_odr hidden void @_ZN12SubTasksDone22all_tasks_claimed_implEPjm(ptr noundef nonnull align 8 dereferenceable(12) %0, ptr noundef %1, i64 noundef %2) #1 comdat align 2 {
  %4 = alloca ptr, align 8
  %5 = alloca ptr, align 8
  %6 = alloca i64, align 8
  store ptr %0, ptr %4, align 8
  store ptr %1, ptr %5, align 8
  store i64 %2, ptr %6, align 8
  ret void
}

; Function Attrs: mustprogress nounwind uwtable
define linkonce_odr hidden void @_ZN12SubTasksDone17all_tasks_claimedIN15G1RootProcessor23G1H_process_roots_tasksEJETnNSt9enable_ifIXcvbsr11ConjunctionIDpSt7is_sameIT_T0_EEE5valueEiE4typeELi0EEEvS5_DpS6_(ptr noundef nonnull align 8 dereferenceable(12) %0, i32 noundef %1) #1 comdat align 2 {
  %3 = alloca ptr, align 8
  %4 = alloca i32, align 4
  %5 = alloca [1 x i32], align 4
  store ptr %0, ptr %3, align 8
  store i32 %1, ptr %4, align 4
  %6 = load ptr, ptr %3, align 8
  %7 = load i32, ptr %4, align 4
  store i32 %7, ptr %5, align 4
  %8 = getelementptr inbounds [1 x i32], ptr %5, i64 0, i64 0
  call void @_ZN12SubTasksDone22all_tasks_claimed_implEPjm(ptr noundef nonnull align 8 dereferenceable(12) %6, ptr noundef %8, i64 noundef 1)
  ret void
}

; Function Attrs: mustprogress nounwind uwtable
define linkonce_odr hidden noundef ptr @_ZNK15G1CollectedHeap16ref_processor_cmEv(ptr noundef nonnull align 8 dereferenceable(1488) %0) #1 comdat align 2 {
  %2 = alloca ptr, align 8
  store ptr %0, ptr %2, align 8
  %3 = load ptr, ptr %2, align 8
  %4 = getelementptr inbounds %class.G1CollectedHeap, ptr %3, i32 0, i32 45
  %5 = load ptr, ptr %4, align 8
  ret ptr %5
}

; Function Attrs: mustprogress nounwind uwtable
define linkonce_odr hidden noundef ptr @_ZN20G1ParScanThreadState8closuresEv(ptr noundef nonnull align 8 dereferenceable(632) %0) #1 comdat align 2 {
  %2 = alloca ptr, align 8
  store ptr %0, ptr %2, align 8
  %3 = load ptr, ptr %2, align 8
  %4 = getelementptr inbounds %class.G1ParScanThreadState, ptr %3, i32 0, i32 5
  %5 = load ptr, ptr %4, align 8
  ret ptr %5
}

; Function Attrs: mustprogress nounwind uwtable
define linkonce_odr hidden noundef ptr @_ZNK15G1CollectedHeap11phase_timesEv(ptr noundef nonnull align 8 dereferenceable(1488) %0) #1 comdat align 2 {
  %2 = alloca ptr, align 8
  store ptr %0, ptr %2, align 8
  %3 = load ptr, ptr %2, align 8
  %4 = getelementptr inbounds %class.G1CollectedHeap, ptr %3, i32 0, i32 32
  %5 = load ptr, ptr %4, align 8
  %6 = call noundef ptr @_ZNK8G1Policy11phase_timesEv(ptr noundef nonnull align 8 dereferenceable(552) %5)
  ret ptr %6
}

; Function Attrs: mustprogress nounwind uwtable
define hidden void @_ZN15G1RootProcessor14evacuate_rootsEP20G1ParScanThreadStatej(ptr noundef nonnull align 8 dereferenceable(320) %0, ptr noundef %1, i32 noundef %2) #1 align 2 {
  %4 = alloca ptr, align 8
  %5 = alloca ptr, align 8
  %6 = alloca i32, align 4
  %7 = alloca ptr, align 8
  %8 = alloca %class.G1EvacPhaseTimesTracker, align 8
  %9 = alloca ptr, align 8
  %10 = alloca %class.G1GCParPhaseTimesTracker, align 8
  store ptr %0, ptr %4, align 8
  store ptr %1, ptr %5, align 8
  store i32 %2, ptr %6, align 4
  %11 = load ptr, ptr %4, align 8
  %12 = getelementptr inbounds %class.G1RootProcessor, ptr %11, i32 0, i32 0
  %13 = load ptr, ptr %12, align 8
  %14 = call noundef ptr @_ZNK15G1CollectedHeap11phase_timesEv(ptr noundef nonnull align 8 dereferenceable(1488) %13)
  store ptr %14, ptr %7, align 8
  %15 = load ptr, ptr %7, align 8
  %16 = load ptr, ptr %5, align 8
  %17 = load i32, ptr %6, align 4
  call void @_ZN23G1EvacPhaseTimesTrackerC1EP14G1GCPhaseTimesP20G1ParScanThreadStateNS0_11GCParPhasesEj(ptr noundef nonnull align 8 dereferenceable(176) %8, ptr noundef %15, ptr noundef %16, i32 noundef 3, i32 noundef %17)
  %18 = load ptr, ptr %5, align 8
  %19 = call noundef ptr @_ZN20G1ParScanThreadState8closuresEv(ptr noundef nonnull align 8 dereferenceable(632) %18)
  store ptr %19, ptr %9, align 8
  %20 = load ptr, ptr %9, align 8
  %21 = load ptr, ptr %7, align 8
  %22 = load i32, ptr %6, align 4
  call void @_ZN15G1RootProcessor18process_java_rootsEP14G1RootClosuresP14G1GCPhaseTimesj(ptr noundef nonnull align 8 dereferenceable(320) %11, ptr noundef %20, ptr noundef %21, i32 noundef %22)
  %23 = load ptr, ptr %9, align 8
  %24 = load ptr, ptr %7, align 8
  %25 = load i32, ptr %6, align 4
  call void @_ZN15G1RootProcessor16process_vm_rootsEP14G1RootClosuresP14G1GCPhaseTimesj(ptr noundef nonnull align 8 dereferenceable(320) %11, ptr noundef %23, ptr noundef %24, i32 noundef %25)
  %26 = getelementptr inbounds %class.G1RootProcessor, ptr %11, i32 0, i32 1
  %27 = call noundef zeroext i1 @_ZN12SubTasksDone14try_claim_taskEj(ptr noundef nonnull align 8 dereferenceable(12) %26, i32 noundef 2)
  br i1 %27, label %28, label %39

28:                                               ; preds = %3
  %29 = load ptr, ptr %7, align 8
  %30 = load i32, ptr %6, align 4
  call void @_ZN24G1GCParPhaseTimesTrackerC1EP14G1GCPhaseTimesNS0_11GCParPhasesEjb(ptr noundef nonnull align 8 dereferenceable(89) %10, ptr noundef %29, i32 noundef 6, i32 noundef %30, i1 noundef zeroext false)
  %31 = getelementptr inbounds %class.G1RootProcessor, ptr %11, i32 0, i32 0
  %32 = load ptr, ptr %31, align 8
  %33 = call noundef ptr @_ZNK15G1CollectedHeap16ref_processor_cmEv(ptr noundef nonnull align 8 dereferenceable(1488) %32)
  %34 = load ptr, ptr %9, align 8
  %35 = load ptr, ptr %34, align 8
  %36 = getelementptr inbounds ptr, ptr %35, i64 0
  %37 = load ptr, ptr %36, align 8
  %38 = call noundef ptr %37(ptr noundef nonnull align 8 dereferenceable(8) %34)
  call void @_ZN18ReferenceProcessor12weak_oops_doEP10OopClosure(ptr noundef nonnull align 8 dereferenceable(88) %33, ptr noundef %38)
  call void @_ZN24G1GCParPhaseTimesTrackerD1Ev(ptr noundef nonnull align 8 dereferenceable(89) %10) #9
  br label %39

39:                                               ; preds = %28, %3
  %40 = getelementptr inbounds %class.G1RootProcessor, ptr %11, i32 0, i32 1
  call void @_ZN12SubTasksDone17all_tasks_claimedIN15G1RootProcessor23G1H_process_roots_tasksEJETnNSt9enable_ifIXcvbsr11ConjunctionIDpSt7is_sameIT_T0_EEE5valueEiE4typeELi0EEEvS5_DpS6_(ptr noundef nonnull align 8 dereferenceable(12) %40, i32 noundef 1)
  call void @_ZN23G1EvacPhaseTimesTrackerD1Ev(ptr noundef nonnull align 8 dereferenceable(176) %8) #9
  ret void
}