; Function Attrs: mustprogress nounwind uwtable
define hidden void @_ZN15G1RootProcessor14evacuate_rootsEP20G1ParScanThreadStatej(ptr noundef nonnull align 8 dereferenceable(320) %0, ptr noundef %1, i32 noundef %2) local_unnamed_addr #0 align 2 {
  %4 = alloca %class.G1EvacPhaseTimesTracker, align 8
  %5 = alloca %class.G1GCParPhaseTimesTracker, align 8
  %6 = load ptr, ptr %0, align 8
  %7 = getelementptr inbounds i8, ptr %6, i64 1064
  %8 = load ptr, ptr %7, align 8
  %9 = tail call noundef ptr @_ZNK8G1Policy11phase_timesEv(ptr noundef nonnull align 8 dereferenceable(552) %8) #10
  call void @_ZN23G1EvacPhaseTimesTrackerC1EP14G1GCPhaseTimesP20G1ParScanThreadStateNS0_11GCParPhasesEj(ptr noundef nonnull align 8 dereferenceable(176) %4, ptr noundef %9, ptr noundef %1, i32 noundef 3, i32 noundef %2) #10
  %10 = getelementptr inbounds i8, ptr %1, i64 96
  %11 = load ptr, ptr %10, align 8
  call void @_ZN15G1RootProcessor18process_java_rootsEP14G1RootClosuresP14G1GCPhaseTimesj(ptr noundef nonnull align 8 dereferenceable(320) %0, ptr noundef %11, ptr noundef %9, i32 noundef %2)
  call void @_ZN15G1RootProcessor16process_vm_rootsEP14G1RootClosuresP14G1GCPhaseTimesj(ptr noundef nonnull align 8 dereferenceable(320) %0, ptr noundef %11, ptr noundef %9, i32 noundef %2)
  %12 = getelementptr inbounds i8, ptr %0, i64 8
  %13 = call noundef zeroext i1 @_ZN12SubTasksDone14try_claim_taskEj(ptr noundef nonnull align 8 dereferenceable(12) %12, i32 noundef 2) #10
  br i1 %13, label %14, label %21

14:                                               ; preds = %3
  call void @_ZN24G1GCParPhaseTimesTrackerC1EP14G1GCPhaseTimesNS0_11GCParPhasesEjb(ptr noundef nonnull align 8 dereferenceable(89) %5, ptr noundef %9, i32 noundef 6, i32 noundef %2, i1 noundef zeroext false) #10
  %15 = load ptr, ptr %0, align 8
  %16 = getelementptr inbounds i8, ptr %15, i64 1392
  %17 = load ptr, ptr %16, align 8
  %18 = load ptr, ptr %11, align 8
  %19 = load ptr, ptr %18, align 8
  %20 = call noundef ptr %19(ptr noundef nonnull align 8 dereferenceable(8) %11) #10
  call void @_ZN18ReferenceProcessor12weak_oops_doEP10OopClosure(ptr noundef nonnull align 8 dereferenceable(88) %17, ptr noundef %20) #10
  call void @_ZN24G1GCParPhaseTimesTrackerD1Ev(ptr noundef nonnull align 8 dereferenceable(89) %5) #10
  br label %21

21:                                               ; preds = %14, %3
  call void @_ZN23G1EvacPhaseTimesTrackerD1Ev(ptr noundef nonnull align 8 dereferenceable(176) %4) #10
  ret void
}